; Function Attrs: nounwind uwtable
define hidden range(i32 0, 2) i32 @tdefl_compress_mem_to_output(ptr noundef %pBuf, i64 noundef %buf_len, ptr noundef %pPut_buf_func, ptr noundef %pPut_buf_user, i32 noundef %flags) local_unnamed_addr #4 {
entry:
  %in_buf_size.addr.i = alloca i64, align 8
  %tobool = icmp eq i64 %buf_len, 0
  %tobool1 = icmp ne ptr %pBuf, null
  %or.cond = or i1 %tobool1, %tobool
  %tobool2 = icmp ne ptr %pPut_buf_func, null
  %or.cond1 = and i1 %or.cond, %tobool2
  br i1 %or.cond1, label %if.end, label %return

if.end:                                           ; preds = %entry
  %call = tail call noalias dereferenceable_or_null(319352) ptr @malloc(i64 noundef 319352) #31
  %tobool3.not = icmp eq ptr %call, null
  br i1 %tobool3.not, label %return, label %if.end5

if.end5:                                          ; preds = %if.end
  store ptr %pPut_buf_func, ptr %call, align 8
  %m_pPut_buf_user.i = getelementptr inbounds nuw i8, ptr %call, i64 8
  store ptr %pPut_buf_user, ptr %m_pPut_buf_user.i, align 8
  %m_flags.i = getelementptr inbounds nuw i8, ptr %call, i64 16
  store i32 %flags, ptr %m_flags.i, align 8
  %and.i = and i32 %flags, 4095
  %0 = trunc nuw nsw i32 %and.i to i16
  %div.lhs.trunc.i = add nuw nsw i16 %0, 2
  %div47.i = udiv i16 %div.lhs.trunc.i, 3
  %narrow.i = add nuw nsw i16 %div47.i, 1
  %add1.i = zext nneg i16 %narrow.i to i32
  %m_max_probes.i = getelementptr inbounds nuw i8, ptr %call, i64 20
  store i32 %add1.i, ptr %m_max_probes.i, align 4
  %and2.i = lshr i32 %flags, 14
  %and2.lobit.i = and i32 %and2.i, 1
  %m_greedy_parsing.i = getelementptr inbounds nuw i8, ptr %call, i64 28
  store i32 %and2.lobit.i, ptr %m_greedy_parsing.i, align 4
  %shr.i = lshr i32 %and.i, 2
  %1 = trunc nuw nsw i32 %shr.i to i16
  %div5.lhs.trunc.i = add nuw nsw i16 %1, 2
  %div548.i = udiv i16 %div5.lhs.trunc.i, 3
  %narrow49.i = add nuw nsw i16 %div548.i, 1
  %add6.i = zext nneg i16 %narrow49.i to i32
  %arrayidx8.i = getelementptr inbounds nuw i8, ptr %call, i64 24
  store i32 %add6.i, ptr %arrayidx8.i, align 4
  %and9.i = and i32 %flags, 32768
  %tobool.not.i = icmp eq i32 %and9.i, 0
  br i1 %tobool.not.i, label %if.then.i, label %tdefl_init.exit

if.then.i:                                        ; preds = %if.end5
  %m_hash.i = getelementptr inbounds nuw i8, ptr %call, i64 168618
  tail call void @llvm.memset.p0.i64(ptr noundef nonnull align 2 dereferenceable(65536) %m_hash.i, i8 0, i64 65536, i1 false)
  br label %tdefl_init.exit

tdefl_init.exit:                                  ; preds = %if.end5, %if.then.i
  %m_total_lz_bytes.i = getelementptr inbounds nuw i8, ptr %call, i64 84
  %m_dict_size.i = getelementptr inbounds nuw i8, ptr %call, i64 44
  store i32 0, ptr %m_dict_size.i, align 4
  %m_lookahead_size.i = getelementptr inbounds nuw i8, ptr %call, i64 40
  store i32 0, ptr %m_lookahead_size.i, align 8
  %m_lookahead_pos.i = getelementptr inbounds nuw i8, ptr %call, i64 36
  store i32 0, ptr %m_lookahead_pos.i, align 4
  %m_output_flush_ofs.i = getelementptr inbounds nuw i8, ptr %call, i64 112
  %m_lz_code_buf.i = getelementptr inbounds nuw i8, ptr %call, i64 37546
  %add.ptr.i = getelementptr inbounds nuw i8, ptr %call, i64 37547
  %m_pLZ_code_buf.i = getelementptr inbounds nuw i8, ptr %call, i64 48
  tail call void @llvm.memset.p0.i64(ptr noundef nonnull align 4 dereferenceable(16) %m_total_lz_bytes.i, i8 0, i64 16, i1 false)
  tail call void @llvm.memset.p0.i64(ptr noundef nonnull align 8 dereferenceable(20) %m_output_flush_ofs.i, i8 0, i64 20, i1 false)
  store ptr %add.ptr.i, ptr %m_pLZ_code_buf.i, align 8
  %m_pLZ_flags.i = getelementptr inbounds nuw i8, ptr %call, i64 56
  store ptr %m_lz_code_buf.i, ptr %m_pLZ_flags.i, align 8
  %m_num_flags_left.i = getelementptr inbounds nuw i8, ptr %call, i64 80
  store i32 8, ptr %m_num_flags_left.i, align 8
  %m_output_buf.i = getelementptr inbounds nuw i8, ptr %call, i64 234154
  %m_pOutput_buf.i = getelementptr inbounds nuw i8, ptr %call, i64 64
  store ptr %m_output_buf.i, ptr %m_pOutput_buf.i, align 8
  %m_pOutput_buf_end.i = getelementptr inbounds nuw i8, ptr %call, i64 72
  store ptr %m_output_buf.i, ptr %m_pOutput_buf_end.i, align 8
  %m_prev_return_status.i = getelementptr inbounds nuw i8, ptr %call, i64 132
  store i32 0, ptr %m_prev_return_status.i, align 4
  %m_saved_lit.i = getelementptr inbounds nuw i8, ptr %call, i64 108
  store i32 0, ptr %m_saved_lit.i, align 4
  %m_saved_match_len.i = getelementptr inbounds nuw i8, ptr %call, i64 104
  store i32 0, ptr %m_saved_match_len.i, align 8
  %m_saved_match_dist.i = getelementptr inbounds nuw i8, ptr %call, i64 100
  store i32 0, ptr %m_saved_match_dist.i, align 4
  %m_adler32.i = getelementptr inbounds nuw i8, ptr %call, i64 32
  store i32 1, ptr %m_adler32.i, align 8
  %m_pIn_buf.i = getelementptr inbounds nuw i8, ptr %call, i64 136
  %m_pSrc.i = getelementptr inbounds nuw i8, ptr %call, i64 176
  %m_huff_count.i = getelementptr inbounds nuw i8, ptr %call, i64 33226
  tail call void @llvm.memset.p0.i64(ptr noundef nonnull align 8 dereferenceable(36) %m_pIn_buf.i, i8 0, i64 36, i1 false)
  tail call void @llvm.memset.p0.i64(ptr noundef nonnull align 8 dereferenceable(24) %m_pSrc.i, i8 0, i64 24, i1 false)
  tail call void @llvm.memset.p0.i64(ptr noundef nonnull align 2 dereferenceable(640) %m_huff_count.i, i8 0, i64 640, i1 false)
  call void @llvm.lifetime.start.p0(i64 8, ptr nonnull %in_buf_size.addr.i)
  store i64 %buf_len, ptr %in_buf_size.addr.i, align 8
  %call.i = call i32 @tdefl_compress(ptr noundef nonnull %call, ptr noundef %pBuf, ptr noundef nonnull %in_buf_size.addr.i, ptr noundef null, ptr noundef null, i32 noundef 4)
  call void @llvm.lifetime.end.p0(i64 8, ptr nonnull %in_buf_size.addr.i)
  %cmp9 = icmp eq i32 %call.i, 1
  %land.ext = zext i1 %cmp9 to i32
  call void @free(ptr noundef nonnull %call) #30
  br label %return

return:                                           ; preds = %if.end, %entry, %tdefl_init.exit
  %retval.0 = phi i32 [ %land.ext, %tdefl_init.exit ], [ 0, %entry ], [ 0, %if.end ]
  ret i32 %retval.0
}